; Function Attrs: nounwind uwtable
define ptr @l_Lean_Compiler_LCNF_Param_toMono(ptr noundef %0, ptr noundef %1, ptr noundef %2, ptr noundef %3, ptr noundef %4, ptr noundef %5, ptr noundef %6) local_unnamed_addr #1 {
  %8 = getelementptr inbounds nuw i8, ptr %0, i64 8
  %9 = getelementptr inbounds nuw i8, ptr %0, i64 24
  %10 = load ptr, ptr %9, align 8, !tbaa !12
  %11 = ptrtoint ptr %10 to i64
  %12 = and i64 %11, 1
  %.not = icmp eq i64 %12, 0
  br i1 %.not, label %13, label %lean_inc.exit43

13:                                               ; preds = %7
  %.val.i = load i32, ptr %10, align 4, !tbaa !8
  %14 = icmp sgt i32 %.val.i, 0
  br i1 %14, label %15, label %17, !prof !11

15:                                               ; preds = %13
  %16 = add nuw i32 %.val.i, 1
  store i32 %16, ptr %10, align 4, !tbaa !8
  br label %lean_inc.exit43

17:                                               ; preds = %13
  %.not.i47 = icmp eq i32 %.val.i, 0
  br i1 %.not.i47, label %lean_inc.exit43, label %18

18:                                               ; preds = %17
  tail call void @lean_inc_ref_cold(ptr noundef nonnull %10) #4
  br label %lean_inc.exit43

lean_inc.exit43:                                  ; preds = %18, %17, %15, %7
  %19 = tail call zeroext i8 @l_Lean_Compiler_LCNF_isTypeFormerType(ptr noundef %10) #4
  %20 = icmp eq i8 %19, 0
  br i1 %20, label %lean_dec.exit, label %21

21:                                               ; preds = %lean_inc.exit43
  %22 = tail call ptr @lean_st_ref_take(ptr noundef %1, ptr noundef %6) #4
  %23 = getelementptr inbounds nuw i8, ptr %22, i64 8
  %24 = load ptr, ptr %23, align 8, !tbaa !12
  %25 = ptrtoint ptr %24 to i64
  %26 = and i64 %25, 1
  %.not60 = icmp eq i64 %26, 0
  br i1 %.not60, label %27, label %lean_inc.exit42

27:                                               ; preds = %21
  %.val.i48 = load i32, ptr %24, align 4, !tbaa !8
  %28 = icmp sgt i32 %.val.i48, 0
  br i1 %28, label %29, label %31, !prof !11

29:                                               ; preds = %27
  %30 = add nuw i32 %.val.i48, 1
  store i32 %30, ptr %24, align 4, !tbaa !8
  br label %lean_inc.exit42

31:                                               ; preds = %27
  %.not.i49 = icmp eq i32 %.val.i48, 0
  br i1 %.not.i49, label %lean_inc.exit42, label %32

32:                                               ; preds = %31
  tail call void @lean_inc_ref_cold(ptr noundef nonnull %24) #4
  br label %lean_inc.exit42

lean_inc.exit42:                                  ; preds = %32, %31, %29, %21
  %33 = getelementptr inbounds nuw i8, ptr %22, i64 16
  %34 = load ptr, ptr %33, align 8, !tbaa !12
  %35 = ptrtoint ptr %34 to i64
  %36 = and i64 %35, 1
  %.not61 = icmp eq i64 %36, 0
  br i1 %.not61, label %37, label %lean_inc.exit41

37:                                               ; preds = %lean_inc.exit42
  %.val.i51 = load i32, ptr %34, align 4, !tbaa !8
  %38 = icmp sgt i32 %.val.i51, 0
  br i1 %38, label %39, label %41, !prof !11

39:                                               ; preds = %37
  %40 = add nuw i32 %.val.i51, 1
  store i32 %40, ptr %34, align 4, !tbaa !8
  br label %lean_inc.exit41

41:                                               ; preds = %37
  %.not.i52 = icmp eq i32 %.val.i51, 0
  br i1 %.not.i52, label %lean_inc.exit41, label %42

42:                                               ; preds = %41
  tail call void @lean_inc_ref_cold(ptr noundef nonnull %34) #4
  br label %lean_inc.exit41

lean_inc.exit41:                                  ; preds = %42, %41, %39, %lean_inc.exit42
  %43 = ptrtoint ptr %22 to i64
  %44 = and i64 %43, 1
  %.not62 = icmp eq i64 %44, 0
  br i1 %.not62, label %45, label %lean_dec.exit44

45:                                               ; preds = %lean_inc.exit41
  %46 = load i32, ptr %22, align 4, !tbaa !8
  %47 = icmp sgt i32 %46, 1
  br i1 %47, label %48, label %50, !prof !11

48:                                               ; preds = %45
  %49 = add nsw i32 %46, -1
  store i32 %49, ptr %22, align 4, !tbaa !8
  br label %lean_dec.exit44

50:                                               ; preds = %45
  %.not.i = icmp eq i32 %46, 0
  br i1 %.not.i, label %lean_dec.exit44, label %51

51:                                               ; preds = %50
  tail call void @lean_dec_ref_cold(ptr noundef nonnull %22) #4
  br label %lean_dec.exit44

lean_dec.exit44:                                  ; preds = %51, %50, %48, %lean_inc.exit41
  %52 = load ptr, ptr %8, align 8, !tbaa !12
  %53 = ptrtoint ptr %52 to i64
  %54 = and i64 %53, 1
  %.not63 = icmp eq i64 %54, 0
  br i1 %.not63, label %55, label %lean_inc.exit40

55:                                               ; preds = %lean_dec.exit44
  %.val.i54 = load i32, ptr %52, align 4, !tbaa !8
  %56 = icmp sgt i32 %.val.i54, 0
  br i1 %56, label %57, label %59, !prof !11

57:                                               ; preds = %55
  %58 = add nuw i32 %.val.i54, 1
  store i32 %58, ptr %52, align 4, !tbaa !8
  br label %lean_inc.exit40

59:                                               ; preds = %55
  %.not.i55 = icmp eq i32 %.val.i54, 0
  br i1 %.not.i55, label %lean_inc.exit40, label %60

60:                                               ; preds = %59
  tail call void @lean_inc_ref_cold(ptr noundef nonnull %52) #4
  br label %lean_inc.exit40

lean_inc.exit40:                                  ; preds = %60, %59, %57, %lean_dec.exit44
  %61 = tail call ptr @l_Lean_RBNode_insert___at_Lean_FVarIdSet_insert___spec__1(ptr noundef %24, ptr noundef %52, ptr noundef nonnull inttoptr (i64 1 to ptr)) #4
  %62 = tail call ptr @lean_st_ref_set(ptr noundef %1, ptr noundef %61, ptr noundef %34) #4
  %63 = getelementptr inbounds nuw i8, ptr %62, i64 16
  %64 = load ptr, ptr %63, align 8, !tbaa !12
  %65 = ptrtoint ptr %64 to i64
  %66 = and i64 %65, 1
  %.not64 = icmp eq i64 %66, 0
  br i1 %.not64, label %67, label %lean_inc.exit

67:                                               ; preds = %lean_inc.exit40
  %.val.i57 = load i32, ptr %64, align 4, !tbaa !8
  %68 = icmp sgt i32 %.val.i57, 0
  br i1 %68, label %69, label %71, !prof !11

69:                                               ; preds = %67
  %70 = add nuw i32 %.val.i57, 1
  store i32 %70, ptr %64, align 4, !tbaa !8
  br label %lean_inc.exit

71:                                               ; preds = %67
  %.not.i58 = icmp eq i32 %.val.i57, 0
  br i1 %.not.i58, label %lean_inc.exit, label %72

72:                                               ; preds = %71
  tail call void @lean_inc_ref_cold(ptr noundef nonnull %64) #4
  br label %lean_inc.exit

lean_inc.exit:                                    ; preds = %72, %71, %69, %lean_inc.exit40
  %73 = ptrtoint ptr %62 to i64
  %74 = and i64 %73, 1
  %.not65 = icmp eq i64 %74, 0
  br i1 %.not65, label %75, label %lean_dec.exit

75:                                               ; preds = %lean_inc.exit
  %76 = load i32, ptr %62, align 4, !tbaa !8
  %77 = icmp sgt i32 %76, 1
  br i1 %77, label %78, label %80, !prof !11

78:                                               ; preds = %75
  %79 = add nsw i32 %76, -1
  store i32 %79, ptr %62, align 4, !tbaa !8
  br label %lean_dec.exit

80:                                               ; preds = %75
  %.not.i45 = icmp eq i32 %76, 0
  br i1 %.not.i45, label %lean_dec.exit, label %81

81:                                               ; preds = %80
  tail call void @lean_dec_ref_cold(ptr noundef nonnull %62) #4
  br label %lean_dec.exit

lean_dec.exit:                                    ; preds = %lean_inc.exit, %78, %80, %81, %lean_inc.exit43
  %.sink = phi ptr [ %6, %lean_inc.exit43 ], [ %64, %81 ], [ %64, %80 ], [ %64, %78 ], [ %64, %lean_inc.exit ]
  %82 = tail call ptr @l_Lean_Compiler_LCNF_Param_toMono___lambda__1(ptr noundef nonnull %0, ptr nonnull poison, ptr poison, ptr noundef %2, ptr noundef %3, ptr noundef %4, ptr noundef %5, ptr noundef %.sink)
  ret ptr %82
}